target datalayout = "e-m:e-p270:32:32-p271:32:32-p272:64:64-i64:64-i128:128-f80:128-n8:16:32:64-S128"
target triple = "x86_64-pc-linux-gnu"

@hf_control_tx_phys = internal global i32 0, align 4
@hf_control_rx_phys = internal global i32 0, align 4
@ett_tx_phys = internal global i32 0, align 4
@ett_rx_phys = internal global i32 0, align 4
@hfx_control_phys_sender = internal constant [5 x ptr] [ptr @hf_control_phys_sender_le_1m_phy, ptr @hf_control_phys_sender_le_2m_phy, ptr @hf_control_phys_sender_le_coded_phy, ptr @hf_control_phys_reserved_bits, ptr null], align 16

; Function Attrs: null_pointer_is_valid sspstrong uwtable
define internal i32 @dissect_phy_req_rsp(ptr noundef %0, ptr noundef %1, i32 noundef %2) #0 {
  %4 = alloca ptr, align 8
  %5 = alloca ptr, align 8
  %6 = alloca i32, align 4
  store ptr %0, ptr %4, align 8
  store ptr %1, ptr %5, align 8
  store i32 %2, ptr %6, align 4
  %7 = load ptr, ptr %5, align 8
  %8 = load ptr, ptr %4, align 8
  %9 = load i32, ptr %6, align 4
  %10 = load i32, ptr @hf_control_tx_phys, align 4
  %11 = load i32, ptr @ett_tx_phys, align 4
  %12 = call ptr @proto_tree_add_bitmask(ptr noundef %7, ptr noundef %8, i32 noundef %9, i32 noundef %10, i32 noundef %11, ptr noundef @hfx_control_phys_sender, i32 noundef 0)
  %13 = load i32, ptr %6, align 4
  %14 = add i32 %13, 1
  store i32 %14, ptr %6, align 4
  %15 = load ptr, ptr %5, align 8
  %16 = load ptr, ptr %4, align 8
  %17 = load i32, ptr %6, align 4
  %18 = load i32, ptr @hf_control_rx_phys, align 4
  %19 = load i32, ptr @ett_rx_phys, align 4
  %20 = call ptr @proto_tree_add_bitmask(ptr noundef %15, ptr noundef %16, i32 noundef %17, i32 noundef %18, i32 noundef %19, ptr noundef @hfx_control_phys_sender, i32 noundef 0)
  %21 = load i32, ptr %6, align 4
  %22 = add i32 %21, 1
  store i32 %22, ptr %6, align 4
  %23 = load i32, ptr %6, align 4
  ret i32 %23
}