; Function Attrs: null_pointer_is_valid sspstrong uwtable
define internal fastcc void @dissect_phy_req_rsp(ptr noundef %0, ptr noundef %1, i32 noundef range(i32 3, 5) %2) unnamed_addr #0 {
  %4 = load i32, ptr @hf_control_tx_phys, align 4
  %5 = load i32, ptr @ett_tx_phys, align 4
  %6 = tail call ptr @proto_tree_add_bitmask(ptr noundef %1, ptr noundef %0, i32 noundef %2, i32 noundef %4, i32 noundef %5, ptr noundef nonnull @hfx_control_phys_sender, i32 noundef 0)
  %7 = add nuw nsw i32 %2, 1
  %8 = load i32, ptr @hf_control_rx_phys, align 4
  %9 = load i32, ptr @ett_rx_phys, align 4
  %10 = tail call ptr @proto_tree_add_bitmask(ptr noundef %1, ptr noundef %0, i32 noundef %7, i32 noundef %8, i32 noundef %9, ptr noundef nonnull @hfx_control_phys_sender, i32 noundef 0)
  ret void
}